target datalayout = "e-m:e-p270:32:32-p271:32:32-p272:64:64-i64:64-i128:128-f80:128-n8:16:32:64-S128"
target triple = "x86_64-pc-linux-gnu"

%struct.AVCodecContext = type { ptr, i32, i32, ptr, i32, i32, ptr, ptr, ptr, i64, i32, i32, ptr, i32, %struct.AVRational, %struct.AVRational, %struct.AVRational, i32, i32, i32, i32, i32, %struct.AVRational, i32, i32, i32, i32, i32, i32, i32, i32, i32, i32, i32, ptr, ptr, i32, float, float, float, float, float, float, float, float, float, i32, i32, i32, i32, i32, i32, i32, i32, i32, i32, i32, i32, ptr, ptr, ptr, i32, i32, i32, i32, i32, i32, i32, i32, i32, i32, %struct.AVChannelLayout, i32, i32, i32, i32, i32, i32, i32, i32, ptr, i32, i32, i32, float, float, i32, i32, i32, i32, i32, ptr, i64, i64, float, float, i32, i32, ptr, ptr, i32, i32, i32, i32, i32, ptr, ptr, ptr, ptr, i32, i32, [8 x i64], i32, i32, i32, i32, i32, i32, i32, ptr, ptr, i32, i32, i32, i32, i32, i32, i32, i32, i32, i32, ptr, ptr, i32, i32, ptr, ptr, ptr, ptr, i32, i32, i64, i32, i32, i64, ptr, i64, ptr, i32, ptr, i32 }
%struct.AVRational = type { i32, i32 }
%struct.AVChannelLayout = type { i32, i32, %union.anon.0, ptr }
%union.anon.0 = type { i64 }
%struct.AVCodec = type { ptr, ptr, i32, i32, i32, i8, ptr, ptr, ptr, ptr, ptr, ptr, ptr, ptr }

@pcm_encode_init.init_static_once = internal global i32 0, align 4
@pcm_encode_init.init_static_once.97 = internal global i32 0, align 4
@pcm_encode_init.init_static_once.98 = internal global i32 0, align 4

; Function Attrs: cold nounwind optsize uwtable
define internal i32 @pcm_encode_init(ptr noundef %0) #0 {
  %2 = alloca ptr, align 8
  store ptr %0, ptr %2, align 8, !tbaa !4
  %3 = load ptr, ptr %2, align 8, !tbaa !4
  %4 = getelementptr inbounds nuw %struct.AVCodecContext, ptr %3, i32 0, i32 72
  store i32 0, ptr %4, align 8, !tbaa !100
  %5 = load ptr, ptr %2, align 8, !tbaa !4
  %6 = getelementptr inbounds nuw %struct.AVCodecContext, ptr %5, i32 0, i32 3
  %7 = load ptr, ptr %6, align 8, !tbaa !56
  %8 = getelementptr inbounds nuw %struct.AVCodec, ptr %7, i32 0, i32 3
  %9 = load i32, ptr %8, align 4, !tbaa !57
  switch i32 %9, label %16 [
    i32 65543, label %10
    i32 65542, label %12
    i32 65571, label %14
  ]

10:                                               ; preds = %1
  %11 = call i32 @pthread_once(ptr noundef @pcm_encode_init.init_static_once, ptr noundef @pcm_alaw_tableinit)
  br label %17

12:                                               ; preds = %1
  %13 = call i32 @pthread_once(ptr noundef @pcm_encode_init.init_static_once.97, ptr noundef @pcm_ulaw_tableinit)
  br label %17

14:                                               ; preds = %1
  %15 = call i32 @pthread_once(ptr noundef @pcm_encode_init.init_static_once.98, ptr noundef @pcm_vidc_tableinit)
  br label %17

16:                                               ; preds = %1
  br label %17

17:                                               ; preds = %16, %14, %12, %10
  %18 = load ptr, ptr %2, align 8, !tbaa !4
  %19 = getelementptr inbounds nuw %struct.AVCodecContext, ptr %18, i32 0, i32 3
  %20 = load ptr, ptr %19, align 8, !tbaa !56
  %21 = getelementptr inbounds nuw %struct.AVCodec, ptr %20, i32 0, i32 3
  %22 = load i32, ptr %21, align 4, !tbaa !57
  %23 = call i32 @av_get_bits_per_sample(i32 noundef %22)
  %24 = load ptr, ptr %2, align 8, !tbaa !4
  %25 = getelementptr inbounds nuw %struct.AVCodecContext, ptr %24, i32 0, i32 114
  store i32 %23, ptr %25, align 8, !tbaa !101
  %26 = load ptr, ptr %2, align 8, !tbaa !4
  %27 = getelementptr inbounds nuw %struct.AVCodecContext, ptr %26, i32 0, i32 71
  %28 = getelementptr inbounds nuw %struct.AVChannelLayout, ptr %27, i32 0, i32 1
  %29 = load i32, ptr %28, align 4, !tbaa !54
  %30 = load ptr, ptr %2, align 8, !tbaa !4
  %31 = getelementptr inbounds nuw %struct.AVCodecContext, ptr %30, i32 0, i32 114
  %32 = load i32, ptr %31, align 8, !tbaa !101
  %33 = mul nsw i32 %29, %32
  %34 = sdiv i32 %33, 8
  %35 = load ptr, ptr %2, align 8, !tbaa !4
  %36 = getelementptr inbounds nuw %struct.AVCodecContext, ptr %35, i32 0, i32 73
  store i32 %34, ptr %36, align 4, !tbaa !102
  %37 = load ptr, ptr %2, align 8, !tbaa !4
  %38 = getelementptr inbounds nuw %struct.AVCodecContext, ptr %37, i32 0, i32 73
  %39 = load i32, ptr %38, align 4, !tbaa !102
  %40 = sext i32 %39 to i64
  %41 = mul nsw i64 %40, 8
  %42 = load ptr, ptr %2, align 8, !tbaa !4
  %43 = getelementptr inbounds nuw %struct.AVCodecContext, ptr %42, i32 0, i32 69
  %44 = load i32, ptr %43, align 8, !tbaa !103
  %45 = sext i32 %44 to i64
  %46 = mul nsw i64 %41, %45
  %47 = load ptr, ptr %2, align 8, !tbaa !4
  %48 = getelementptr inbounds nuw %struct.AVCodecContext, ptr %47, i32 0, i32 9
  store i64 %46, ptr %48, align 8, !tbaa !104
  ret i32 0
}