; Function Attrs: cold nounwind optsize uwtable
define internal noundef i32 @pcm_encode_init(ptr noundef captures(none) initializes((56, 64), (376, 384), (648, 652)) %0) #2 {
  %2 = getelementptr inbounds nuw i8, ptr %0, i64 376
  store i32 0, ptr %2, align 8, !tbaa !85
  %3 = getelementptr inbounds nuw i8, ptr %0, i64 16
  %4 = load ptr, ptr %3, align 8, !tbaa !43
  %5 = getelementptr inbounds nuw i8, ptr %4, i64 20
  %6 = load i32, ptr %5, align 4, !tbaa !44
  switch i32 %6, label %13 [
    i32 65543, label %7
    i32 65542, label %9
    i32 65571, label %11
  ]

7:                                                ; preds = %1
  %8 = tail call i32 @pthread_once(ptr noundef nonnull @pcm_encode_init.init_static_once, ptr noundef nonnull @pcm_alaw_tableinit) #9
  br label %13

9:                                                ; preds = %1
  %10 = tail call i32 @pthread_once(ptr noundef nonnull @pcm_encode_init.init_static_once.97, ptr noundef nonnull @pcm_ulaw_tableinit) #9
  br label %13

11:                                               ; preds = %1
  %12 = tail call i32 @pthread_once(ptr noundef nonnull @pcm_encode_init.init_static_once.98, ptr noundef nonnull @pcm_vidc_tableinit) #9
  br label %13

13:                                               ; preds = %1, %11, %9, %7
  %14 = load ptr, ptr %3, align 8, !tbaa !43
  %15 = getelementptr inbounds nuw i8, ptr %14, i64 20
  %16 = load i32, ptr %15, align 4, !tbaa !44
  %17 = tail call i32 @av_get_bits_per_sample(i32 noundef %16) #9
  %18 = getelementptr inbounds nuw i8, ptr %0, i64 648
  store i32 %17, ptr %18, align 8, !tbaa !86
  %19 = getelementptr inbounds nuw i8, ptr %0, i64 356
  %20 = load i32, ptr %19, align 4, !tbaa !41
  %21 = mul nsw i32 %20, %17
  %22 = sdiv i32 %21, 8
  %23 = getelementptr inbounds nuw i8, ptr %0, i64 380
  store i32 %22, ptr %23, align 4, !tbaa !87
  %24 = sext i32 %22 to i64
  %25 = shl nsw i64 %24, 3
  %26 = getelementptr inbounds nuw i8, ptr %0, i64 344
  %27 = load i32, ptr %26, align 8, !tbaa !88
  %28 = sext i32 %27 to i64
  %29 = mul nsw i64 %25, %28
  %30 = getelementptr inbounds nuw i8, ptr %0, i64 56
  store i64 %29, ptr %30, align 8, !tbaa !89
  ret i32 0
}